MPASM  5.52  /HOME/KAZUSA/MPLABXPROJECTS/FM_A   10-10-2013  11:50:21         PAGE  1


LOC  OBJECT CODE     LINE SOURCE TEXT
  VALUE

                      00001 ;This software is released under the MIT License, see LICENSE.txt.
                      00002 
                      00003 
Warning[205]: Found directive in column 1. (LIST)
                      00004 LIST    P=PIC16F1827,R=DEC
Warning[205]: Found directive in column 1. (INCLUDE)
                      00005 INCLUDE "p16f1827.inc"
                      00001         LIST
                      00002 
                      00003 ;==========================================================================
                      00004 ;  MPASM PIC16F1827 processor include
                      00005 ; 
                      00006 ;  (c) Copyright 1999-2013 Microchip Technology, All rights reserved
                      00007 ;==========================================================================
                      00008 
                      01312         LIST
                      00006 
                      00007 
Warning[205]: Found directive in column 1. (__CONFIG)
Message[303]: Program word too large.  Truncated to core size. (CFC4)
8007   0FC4           00008 __CONFIG _CONFIG1 , _PWRTE_ON & _MCLRE_ON & _WDTE_OFF & _FOSC_INTOSC & _CP_OFF &_CLKOUTEN_OFF & _IESO_OF
                            F & _FCMEN_OFF
Warning[205]: Found directive in column 1. (__CONFIG)
Message[303]: Program word too large.  Truncated to core size. (DDFF)
8008   1DFF           00009 __CONFIG _CONFIG2 , _WRT_OFF & _PLLEN_ON & _STVREN_OFF & _LVP_OFF
                      00010 
  00000020            00011 LOOPCNT         EQU     20H
  00000021            00012 JOBF            EQU     21H
  00000022            00013 INTFG           EQU     22H
  00000023            00014 P_QUAD_0        EQU     23H
  00000024            00015 P_PHASE_0       EQU     24H
  00000025            00016 ENV_TIK         EQU     25H
  00000026            00017 ENV_CNT         EQU     26H
  00000027            00018 ENV_OUT         EQU     27H
  00000028            00019 OUTWAV_0        EQU     28H
  00000029            00020 MODF_0          EQU     29H
                      00021 
                      00022 
                      00023 
  0000002D            00024 MOD_SIG_0       EQU     2DH
  0000002E            00025 KEY_PRV         EQU     2EH
  0000002F            00026 P_QUAD_1        EQU     2FH
  00000030            00027 P_PHASE_1       EQU     30H
  00000031            00028 OUTWAV_1        EQU     31H
  00000032            00029 MODF_1          EQU     32H
  00000033            00030 MOD_SIG_1       EQU     33H
  00000034            00031 ROM_PHASE       EQU     34H
  00000035            00032 ROM_QUAD        EQU     35H
  00000036            00033 OUTWAV          EQU     36H
  00000037            00034 SYSTIK    EQU 37H
  00000038            00035 ATKCNT    EQU 38H
  00000039            00036 CNTMOD    EQU 39H
                      00037 
MPASM  5.52  /HOME/KAZUSA/MPLABXPROJECTS/FM_A   10-10-2013  11:50:21         PAGE  2


LOC  OBJECT CODE     LINE SOURCE TEXT
  VALUE

  00000004            00038 KEYPORT         EQU     4
  00000000            00039 FM_ON           EQU     0
  00000001            00040 FM_EST          EQU     1
  00000003            00041 SW_EST  EQU 3
                      00042 
  00000055            00043 JOBMASK         EQU     B'01010101'
  00000088            00044 PHASE_ROM_H     EQU     88H
  00000089            00045 ENV_ROM_H       EQU     89H
                      00046 
                      00047         ORG     00H
0000   2???           00048 RESETV          GOTO    START
                      00049 
                      00050         ORG     04H
0004   2???           00051 INTV            GOTO    IRQ
                      00052 
0005   0AA2           00053 IRQ             INCF    INTFG,1       ;intrupt que, setting INTFG flag
0006   30A0           00054                 MOVLW   B'10100000'
0007   008B           00055                 MOVWF   INTCON
0008   0009           00056                 RETFIE
                      00057 
0009   0021           00058 START           MOVLB   1           ;starting loutin include setting peripherals and set Flags 
000A   30D0           00059                 MOVLW   B'11010000'
Message[302]: Register in operand not in bank 0.  Ensure that bank bits are correct.
000B   0095           00060                 MOVWF   OPTION_REG
Message[302]: Register in operand not in bank 0.  Ensure that bank bits are correct.
000C   018D           00061                 CLRF    TRISB
000D   3010           00062                 MOVLW   B'00010000'
Message[302]: Register in operand not in bank 0.  Ensure that bank bits are correct.
000E   008C           00063                 MOVWF   TRISA
000F   30F0           00064                 MOVLW   B'11110000'
Message[302]: Register in operand not in bank 0.  Ensure that bank bits are correct.
0010   0099           00065                 MOVWF   OSCCON
0011   0023           00066                 MOVLB   3
Message[302]: Register in operand not in bank 0.  Ensure that bank bits are correct.
0012   018C           00067                 CLRF    ANSELA
Message[302]: Register in operand not in bank 0.  Ensure that bank bits are correct.
0013   018D           00068                 CLRF    ANSELB
0014   0020           00069                 MOVLB   0
0015   30A0           00070                 MOVLW   B'10100000'
0016   008B           00071                 MOVWF   INTCON
0017   018D           00072                 CLRF    PORTB
0018   0195           00073                 CLRF    TMR0
0019   01A2           00074                 CLRF    INTFG
001A   01A1           00075                 CLRF    JOBF
001B   01A0           00076                 CLRF    LOOPCNT
001C   2???           00077                 CALL    INIT_FM
001D   15A1           00078     BSF   JOBF,SW_EST
001E   2???           00079     GOTO    MAIN
                      00080 
001F   0103           00081 MAIN            CLRW                  ;system main loutin
0020   2???           00082     CALL        SYN_JOB
0021   19A1           00083     BTFSC JOBF,SW_EST
0022   2???           00084     CALL  CHKSW
MPASM  5.52  /HOME/KAZUSA/MPLABXPROJECTS/FM_A   10-10-2013  11:50:21         PAGE  3


LOC  OBJECT CODE     LINE SOURCE TEXT
  VALUE

0023   18A1           00085                 BTFSC   JOBF,FM_EST
0024   2???           00086                 CALL    FM
0025   2???           00087                 CALL    CASTWAV
                      00088     ;CALL  DECRESE
                      00089     ;CALL  MODLOG
0026   2???           00090                 CALL    SYNCS
0027   2???           00091                 CALL    OUT_R2R
0028   2???           00092                 GOTO    MAIN
                      00093 
0029   1FA0           00094 CHKSW BTFSS     LOOPCNT,7         ;checking input of switch and Counting SYSTIK (System tick)
002A   0AB7           00095       INCF  SYSTIK,1
002B   0008           00096                 RETURN
002C   01A0           00097                 CLRF    LOOPCNT
002D   1E0C           00098                 BTFSS   PORTA,KEYPORT
002E   2???           00099                 GOTO    CLRKEY
002F   182E           00100                 BTFSC   KEY_PRV,0
0030   0008           00101                 RETURN
0031   1421           00102                 BSF     JOBF,FM_ON
0032   142E           00103                 BSF     KEY_PRV,0
0033   300B           00104     MOVLW 11
0034   07B8           00105     ADDWF ATKCNT,1
0035   0008           00106                 RETURN
0036   102E           00107 CLRKEY          BCF     KEY_PRV,0
0037   0008           00108                 RETURN
                      00109 
0038   0821           00110 SYN_JOB         MOVF    JOBF,0          ;Establishing JOBs
0039   3955           00111                 ANDLW   JOBMASK
003A   1903           00112                 BTFSC   STATUS,Z
003B   0008           00113                 RETURN
003C   3509           00114                 LSLF    WREG,0
003D   04A1           00115                 IORWF   JOBF,1
003E   0008           00116                 RETURN
                      00117 
003F   1821           00118 FM              BTFSC   JOBF,FM_ON          ;FM main loutin
0040   2???           00119                 CALL    INIT_FM
0041   2???           00120                 CALL    P0_STEP
0042   2???           00121                 CALL    P1_STEP
0043   2???           00122                 CALL    OPX_WAV
0044   2???           00123                 CALL    STEPENV
0045   2???           00124                 CALL    APLYENV
0046   2???           00125                 CALL    APLYMD0
                      00126                 ;CALL   APLYMD1
0047   0008           00127                 RETURN
                      00128 
0048   1021           00129 INIT_FM         BCF     JOBF,FM_ON        ;Initializing FM's GPRs and clear FM_ON flag
0049   01A3           00130                 CLRF    P_QUAD_0
004A   01A4           00131                 CLRF    P_PHASE_0
004B   01A5           00132                 CLRF    ENV_TIK
004C   01A6           00133                 CLRF    ENV_CNT
004D   01A7           00134                 CLRF    ENV_OUT
004E   01A8           00135                 CLRF    OUTWAV_0
004F   01A9           00136                 CLRF    MODF_0
0050   01AD           00137                 CLRF    MOD_SIG_0
MPASM  5.52  /HOME/KAZUSA/MPLABXPROJECTS/FM_A   10-10-2013  11:50:21         PAGE  4


LOC  OBJECT CODE     LINE SOURCE TEXT
  VALUE

0051   01AF           00138                 CLRF    P_QUAD_1
0052   01B0           00139                 CLRF    P_PHASE_1
0053   01B1           00140                 CLRF    OUTWAV_1
0054   01B2           00141                 CLRF    MODF_1
0055   01B3           00142                 CLRF    MOD_SIG_1
0056   0008           00143                 RETURN
                      00144 
0057   303A           00145 P0_STEP         MOVLW   58
0058   07A4           00146                 ADDWF   P_PHASE_0,1
0059   1803           00147                 BTFSC   STATUS,C
005A   0AA3           00148                 INCF    P_QUAD_0,1
005B   182D           00149                 BTFSC   MOD_SIG_0,0
005C   2???           00150                 GOTO    SUB0
005D   0829           00151 ADD0            MOVF    MODF_0,0
005E   07A4           00152                 ADDWF   P_PHASE_0,1
005F   1803           00153                 BTFSC   STATUS,C
0060   0AA3           00154                 INCF    P_QUAD_0,1
0061   0008           00155                 RETURN
0062   0829           00156 SUB0            MOVF    MODF_0,0
0063   02A4           00157                 SUBWF   P_PHASE_0,1
0064   1C03           00158                 BTFSS   STATUS,C
0065   03A3           00159                 DECF    P_QUAD_0,1
0066   0008           00160                 RETURN
                      00161 
0067   301D           00162 P1_STEP         MOVLW   29            ;phase steping and Modulation adding
0068   07B0           00163                 ADDWF   P_PHASE_1,1
0069   1803           00164                 BTFSC   STATUS,C
006A   0AAF           00165                 INCF    P_QUAD_1,1
006B   182D           00166                 BTFSC   MOD_SIG_0,0
006C   2???           00167                 GOTO    SUB1
006D   0829           00168 ADD1            MOVF    MODF_0,0
006E   07B0           00169                 ADDWF   P_PHASE_1,1
006F   1803           00170                 BTFSC   STATUS,C
0070   0AAF           00171                 INCF    P_QUAD_1,1
0071   0008           00172                 RETURN
0072   0829           00173 SUB1            MOVF    MODF_0,0
0073   02B0           00174                 SUBWF   P_PHASE_1,1
0074   1C03           00175                 BTFSS   STATUS,C
0075   03AF           00176                 DECF    P_QUAD_1,1
0076   0008           00177                 RETURN
                      00178 
0077   0824           00179 OPX_WAV MOVF    P_PHASE_0,0     ;gets SIN value
0078   00B4           00180                 MOVWF   ROM_PHASE
0079   0823           00181                 MOVF    P_QUAD_0,0
007A   00B5           00182                 MOVWF   ROM_QUAD
007B   2???           00183                 CALL    ROM2SIN
007C   0836           00184                 MOVF    OUTWAV,0
007D   00A8           00185                 MOVWF   OUTWAV_0
007E   0830           00186                 MOVF    P_PHASE_1,0
007F   00B4           00187                 MOVWF   ROM_PHASE
0080   082F           00188                 MOVF    P_QUAD_1,0
0081   00B5           00189                 MOVWF   ROM_QUAD
0082   2???           00190                 CALL    ROM2SIN
MPASM  5.52  /HOME/KAZUSA/MPLABXPROJECTS/FM_A   10-10-2013  11:50:21         PAGE  5


LOC  OBJECT CODE     LINE SOURCE TEXT
  VALUE

0083   0836           00191                 MOVF    OUTWAV,0
0084   00B1           00192                 MOVWF   OUTWAV_1
0085   0008           00193                 RETURN
                      00194 
0086   0834           00195 ROM2SIN MOVF    ROM_PHASE,0     ;load SIN value from Flash ROM,
0087   1835           00196                 BTFSC   ROM_QUAD,0
0088   0909           00197                 COMF    WREG,0
0089   0084           00198                 MOVWF   FSR0L
008A   3088           00199                 MOVLW   PHASE_ROM_H
008B   0085           00200                 MOVWF   FSR0H
008C   0800           00201                 MOVF    INDF0,0
008D   00B6           00202                 MOVWF   OUTWAV
008E   0008           00203                 RETURN
                      00204 
008F   0FA5           00205 STEPENV INCFSZ  ENV_TIK,1     ;steping Envelope Generator signal
0090   0008           00206                 RETURN
0091   0AA6           00207                 INCF    ENV_CNT,1
0092   0826           00208                 MOVF    ENV_CNT,0
0093   3A24           00209                 XORLW   36
0094   1903           00210                 BTFSC   STATUS,Z
0095   10A1           00211                 BCF     JOBF,FM_EST
0096   3089           00212                 MOVLW   ENV_ROM_H
0097   0087           00213                 MOVWF   FSR1H
0098   0826           00214                 MOVF    ENV_CNT,0
0099   0086           00215                 MOVWF   FSR1L
009A   0801           00216                 MOVF    INDF1,0
009B   00A7           00217                 MOVWF   ENV_OUT
009C   0008           00218                 RETURN
                      00219 
009D   0827           00220 APLYENV MOVF    ENV_OUT,0     ;apply Envelope Generator signal to OUTWAV
009E   1903           00221                 BTFSC   STATUS,Z
009F   0008           00222                 RETURN
00A0   36A8           00223 LOOPENV         LSRF    OUTWAV_0,1
00A1   0B89           00224                 DECFSZ  WREG,1
00A2   2???           00225                 GOTO    LOOPENV
00A3   0008           00226                 RETURN
                      00227 
00A4   0828           00228 APLYMD0         MOVF    OUTWAV_0,0 ;transform OUTWAV to Modulation signal
00A5   00A9           00229                 MOVWF   MODF_0
00A6   36A9           00230                 LSRF    MODF_0,1
00A7   01AD           00231                 CLRF    MOD_SIG_0
00A8   1CA3           00232                 BTFSS   P_QUAD_0,1
00A9   0008           00233                 RETURN
00AA   142D           00234                 BSF     MOD_SIG_0,0
00AB   0008           00235                 RETURN
                      00236 
00AC   0831           00237 APLYMD1         MOVF    OUTWAV_1,0 
00AD   00B2           00238                 MOVWF   MODF_1
00AE   01B3           00239                 CLRF    MOD_SIG_1
00AF   1CAF           00240                 BTFSS   P_QUAD_1,1
00B0   0008           00241                 RETURN
00B1   1433           00242                 BSF     MOD_SIG_1,0
00B2   0008           00243                 RETURN
MPASM  5.52  /HOME/KAZUSA/MPLABXPROJECTS/FM_A   10-10-2013  11:50:21         PAGE  6


LOC  OBJECT CODE     LINE SOURCE TEXT
  VALUE

                      00244 
00B3   1F37           00245 DECRESE BTFSS SYSTIK,6      ;store to a half of ATKCNT itself  
00B4   0008           00246   RETURN
00B5   01B7           00247   CLRF  SYSTIK
00B6   36B8           00248   LSRF  ATKCNT,1
00B7   0008           00249   RETURN
                      00250 
00B8   0838           00251 MODLOG  MOVF ATKCNT,0     ;apply LOG ATKCNT and store CNTMOD
00B9   1903           00252   BTFSC STATUS,Z
00BA   0008           00253   RETURN
00BB   0AB9           00254 ROTCNT  INCF CNTMOD,1
00BC   3609           00255   LSRF WREG,0
00BD   1D03           00256   BTFSS STATUS,Z
00BE   2???           00257   GOTO ROTCNT
00BF   0008           00258   RETURN
                      00259 
                      00260 ;MAXACT it has ACTION, is relation for ATKCNT counting maximam
                      00261 
00C0   36B1           00262 CASTWAV         LSRF    OUTWAV_1,1              ;transforming OUTWAV to R-2R ladder format
00C1   18AF           00263                 BTFSC   P_QUAD_1,1
00C2   2???           00264                 GOTO    CAST_L
00C3   17B1           00265 CAST_H          BSF     OUTWAV_1,7
00C4   0008           00266                 RETURN
00C5   09B1           00267 CAST_L          COMF    OUTWAV_1,1
00C6   13B1           00268                 BCF     OUTWAV_1,7
00C7   0008           00269                 RETURN
                      00270 
00C8   1C22           00271 SYNCS           BTFSS   INTFG,0                   ;sync Sampling period (waiting timer1 overflow intarup
                            t)
00C9   2???           00272                 GOTO    SYNCS
00CA   0AA0           00273                 INCF    LOOPCNT,1
00CB   01A2           00274                 CLRF    INTFG
00CC   0008           00275                 RETURN
                      00276 
00CD   0831           00277 OUT_R2R         MOVF    OUTWAV_1,0              ;output WAV date (8bit)
00CE   008D           00278                 MOVWF   PORTB
00CF   01B6           00279                 CLRF    OUTWAV
00D0   01A8           00280                 CLRF    OUTWAV_0
00D1   01B1           00281                 CLRF    OUTWAV_1
00D2   0008           00282                 RETURN
                      00283 
                      00284 ;ROMs for fm synthesize table
                      00285         ORG     800H
0800   0000           00286         DE      0
0801   0001           00287         DE      1
0802   0003           00288         DE      3
0803   0004           00289         DE      4
0804   0006           00290         DE      6
0805   0007           00291         DE      7
0806   0009           00292         DE      9
0807   000A           00293         DE      10
0808   000C           00294         DE      12
0809   000E           00295         DE      14
MPASM  5.52  /HOME/KAZUSA/MPLABXPROJECTS/FM_A   10-10-2013  11:50:21         PAGE  7


LOC  OBJECT CODE     LINE SOURCE TEXT
  VALUE

080A   000F           00296         DE      15
080B   0011           00297         DE      17
080C   0012           00298         DE      18
080D   0014           00299         DE      20
080E   0015           00300         DE      21
080F   0017           00301         DE      23
0810   0019           00302         DE      25
0811   001A           00303         DE      26
0812   001C           00304         DE      28
0813   001D           00305         DE      29
0814   001F           00306         DE      31
0815   0020           00307         DE      32
0816   0022           00308         DE      34
0817   0024           00309         DE      36
0818   0025           00310         DE      37
0819   0027           00311         DE      39
081A   0028           00312         DE      40
081B   002A           00313         DE      42
081C   002B           00314         DE      43
081D   002D           00315         DE      45
081E   002E           00316         DE      46
081F   0030           00317         DE      48
0820   0031           00318         DE      49
0821   0033           00319         DE      51
0822   0035           00320         DE      53
0823   0036           00321         DE      54
0824   0038           00322         DE      56
0825   0039           00323         DE      57
0826   003B           00324         DE      59
0827   003C           00325         DE      60
0828   003E           00326         DE      62
0829   003F           00327         DE      63
082A   0041           00328         DE      65
082B   0042           00329         DE      66
082C   0044           00330         DE      68
082D   0045           00331         DE      69
082E   0047           00332         DE      71
082F   0048           00333         DE      72
0830   004A           00334         DE      74
0831   004B           00335         DE      75
0832   004D           00336         DE      77
0833   004E           00337         DE      78
0834   0050           00338         DE      80
0835   0051           00339         DE      81
0836   0053           00340         DE      83
0837   0054           00341         DE      84
0838   0056           00342         DE      86
0839   0057           00343         DE      87
083A   0059           00344         DE      89
083B   005A           00345         DE      90
083C   005C           00346         DE      92
083D   005D           00347         DE      93
083E   005F           00348         DE      95
MPASM  5.52  /HOME/KAZUSA/MPLABXPROJECTS/FM_A   10-10-2013  11:50:21         PAGE  8


LOC  OBJECT CODE     LINE SOURCE TEXT
  VALUE

083F   0060           00349         DE      96
0840   0061           00350         DE      97
0841   0063           00351         DE      99
0842   0064           00352         DE      100
0843   0066           00353         DE      102
0844   0067           00354         DE      103
0845   0069           00355         DE      105
0846   006A           00356         DE      106
0847   006C           00357         DE      108
0848   006D           00358         DE      109
0849   006E           00359         DE      110
084A   0070           00360         DE      112
084B   0071           00361         DE      113
084C   0073           00362         DE      115
084D   0074           00363         DE      116
084E   0075           00364         DE      117
084F   0077           00365         DE      119
0850   0078           00366         DE      120
0851   007A           00367         DE      122
0852   007B           00368         DE      123
0853   007C           00369         DE      124
0854   007E           00370         DE      126
0855   007F           00371         DE      127
0856   0080           00372         DE      128
0857   0082           00373         DE      130
0858   0083           00374         DE      131
0859   0084           00375         DE      132
085A   0086           00376         DE      134
085B   0087           00377         DE      135
085C   0088           00378         DE      136
085D   008A           00379         DE      138
085E   008B           00380         DE      139
085F   008C           00381         DE      140
0860   008E           00382         DE      142
0861   008F           00383         DE      143
0862   0090           00384         DE      144
0863   0092           00385         DE      146
0864   0093           00386         DE      147
0865   0094           00387         DE      148
0866   0095           00388         DE      149
0867   0097           00389         DE      151
0868   0098           00390         DE      152
0869   0099           00391         DE      153
086A   009A           00392         DE      154
086B   009C           00393         DE      156
086C   009D           00394         DE      157
086D   009E           00395         DE      158
086E   009F           00396         DE      159
086F   00A1           00397         DE      161
0870   00A2           00398         DE      162
0871   00A3           00399         DE      163
0872   00A4           00400         DE      164
0873   00A5           00401         DE      165
MPASM  5.52  /HOME/KAZUSA/MPLABXPROJECTS/FM_A   10-10-2013  11:50:21         PAGE  9


LOC  OBJECT CODE     LINE SOURCE TEXT
  VALUE

0874   00A7           00402         DE      167
0875   00A8           00403         DE      168
0876   00A9           00404         DE      169
0877   00AA           00405         DE      170
0878   00AB           00406         DE      171
0879   00AC           00407         DE      172
087A   00AE           00408         DE      174
087B   00AF           00409         DE      175
087C   00B0           00410         DE      176
087D   00B1           00411         DE      177
087E   00B2           00412         DE      178
087F   00B3           00413         DE      179
0880   00B4           00414         DE      180
0881   00B5           00415         DE      181
0882   00B7           00416         DE      183
0883   00B8           00417         DE      184
0884   00B9           00418         DE      185
0885   00BA           00419         DE      186
0886   00BB           00420         DE      187
0887   00BC           00421         DE      188
0888   00BD           00422         DE      189
0889   00BE           00423         DE      190
088A   00BF           00424         DE      191
088B   00C0           00425         DE      192
088C   00C1           00426         DE      193
088D   00C2           00427         DE      194
088E   00C3           00428         DE      195
088F   00C4           00429         DE      196
0890   00C5           00430         DE      197
0891   00C6           00431         DE      198
0892   00C7           00432         DE      199
0893   00C8           00433         DE      200
0894   00C9           00434         DE      201
0895   00CA           00435         DE      202
0896   00CB           00436         DE      203
0897   00CC           00437         DE      204
0898   00CD           00438         DE      205
0899   00CE           00439         DE      206
089A   00CF           00440         DE      207
089B   00D0           00441         DE      208
089C   00D1           00442         DE      209
089D   00D1           00443         DE      209
089E   00D2           00444         DE      210
089F   00D3           00445         DE      211
08A0   00D4           00446         DE      212
08A1   00D5           00447         DE      213
08A2   00D6           00448         DE      214
08A3   00D7           00449         DE      215
08A4   00D7           00450         DE      215
08A5   00D8           00451         DE      216
08A6   00D9           00452         DE      217
08A7   00DA           00453         DE      218
08A8   00DB           00454         DE      219
MPASM  5.52  /HOME/KAZUSA/MPLABXPROJECTS/FM_A   10-10-2013  11:50:21         PAGE 10


LOC  OBJECT CODE     LINE SOURCE TEXT
  VALUE

08A9   00DC           00455         DE      220
08AA   00DC           00456         DE      220
08AB   00DD           00457         DE      221
08AC   00DE           00458         DE      222
08AD   00DF           00459         DE      223
08AE   00DF           00460         DE      223
08AF   00E0           00461         DE      224
08B0   00E1           00462         DE      225
08B1   00E2           00463         DE      226
08B2   00E2           00464         DE      226
08B3   00E3           00465         DE      227
08B4   00E4           00466         DE      228
08B5   00E4           00467         DE      228
08B6   00E5           00468         DE      229
08B7   00E6           00469         DE      230
08B8   00E6           00470         DE      230
08B9   00E7           00471         DE      231
08BA   00E8           00472         DE      232
08BB   00E8           00473         DE      232
08BC   00E9           00474         DE      233
08BD   00EA           00475         DE      234
08BE   00EA           00476         DE      234
08BF   00EB           00477         DE      235
08C0   00EC           00478         DE      236
08C1   00EC           00479         DE      236
08C2   00ED           00480         DE      237
08C3   00ED           00481         DE      237
08C4   00EE           00482         DE      238
08C5   00EE           00483         DE      238
08C6   00EF           00484         DE      239
08C7   00EF           00485         DE      239
08C8   00F0           00486         DE      240
08C9   00F1           00487         DE      241
08CA   00F1           00488         DE      241
08CB   00F2           00489         DE      242
08CC   00F2           00490         DE      242
08CD   00F3           00491         DE      243
08CE   00F3           00492         DE      243
08CF   00F3           00493         DE      243
08D0   00F4           00494         DE      244
08D1   00F4           00495         DE      244
08D2   00F5           00496         DE      245
08D3   00F5           00497         DE      245
08D4   00F6           00498         DE      246
08D5   00F6           00499         DE      246
08D6   00F6           00500         DE      246
08D7   00F7           00501         DE      247
08D8   00F7           00502         DE      247
08D9   00F8           00503         DE      248
08DA   00F8           00504         DE      248
08DB   00F8           00505         DE      248
08DC   00F9           00506         DE      249
08DD   00F9           00507         DE      249
MPASM  5.52  /HOME/KAZUSA/MPLABXPROJECTS/FM_A   10-10-2013  11:50:21         PAGE 11


LOC  OBJECT CODE     LINE SOURCE TEXT
  VALUE

08DE   00F9           00508         DE      249
08DF   00FA           00509         DE      250
08E0   00FA           00510         DE      250
08E1   00FA           00511         DE      250
08E2   00FA           00512         DE      250
08E3   00FB           00513         DE      251
08E4   00FB           00514         DE      251
08E5   00FB           00515         DE      251
08E6   00FB           00516         DE      251
08E7   00FC           00517         DE      252
08E8   00FC           00518         DE      252
08E9   00FC           00519         DE      252
08EA   00FC           00520         DE      252
08EB   00FD           00521         DE      253
08EC   00FD           00522         DE      253
08ED   00FD           00523         DE      253
08EE   00FD           00524         DE      253
08EF   00FD           00525         DE      253
08F0   00FD           00526         DE      253
08F1   00FE           00527         DE      254
08F2   00FE           00528         DE      254
08F3   00FE           00529         DE      254
08F4   00FE           00530         DE      254
08F5   00FE           00531         DE      254
08F6   00FE           00532         DE      254
08F7   00FE           00533         DE      254
08F8   00FE           00534         DE      254
08F9   00FE           00535         DE      254
08FA   00FE           00536         DE      254
08FB   00FE           00537         DE      254
08FC   00FE           00538         DE      254
08FD   00FE           00539         DE      254
08FE   00FE           00540         DE      254
08FF   00FF           00541         DE      255
                      00542 
                      00543 
                      00544 
                      00545 ;Envelope Table
                      00546 
                      00547         ORG     900H
0900   0008           00548         DE      8
0901   0007           00549         DE      7
0902   0006           00550         DE      6
0903   0005           00551         DE      5
0904   0004           00552         DE      4
0905   0003           00553         DE      3
0906   0003           00554         DE      3
0907   0003           00555         DE      3
0908   0003           00556         DE      3
0909   0003           00557         DE      3
090A   0004           00558         DE      4
090B   0004           00559         DE      4
090C   0004           00560         DE      4
MPASM  5.52  /HOME/KAZUSA/MPLABXPROJECTS/FM_A   10-10-2013  11:50:21         PAGE 12


LOC  OBJECT CODE     LINE SOURCE TEXT
  VALUE

090D   0004           00561         DE      4
090E   0004           00562         DE      4
090F   0004           00563         DE      4
0910   0004           00564         DE      4
0911   0004           00565         DE      4
0912   0004           00566         DE      4
0913   0004           00567         DE      4
0914   0004           00568         DE      4
0915   0004           00569         DE      4
0916   0004           00570         DE      4
0917   0004           00571         DE      4
0918   0004           00572         DE      4
0919   0004           00573         DE      4
091A   0004           00574         DE      4
091B   0004           00575         DE      4
091C   0004           00576         DE      4
091D   0004           00577         DE      4
091E   0004           00578         DE      4
091F   0004           00579         DE      4
0920   0004           00580         DE      4
0921   0004           00581         DE      4
0922   0005           00582         DE      5
0923   0006           00583         DE      6
0924   0007           00584         DE      7
0925   0008           00585         DE      8
                      00586 
                      00587 
                      00588 
Message[303]: Program word too large.  Truncated to core size. (CFC4)
Message[303]: Program word too large.  Truncated to core size. (DDFF)
0FC4 1DFF             00589         END
MPASM  5.52  /HOME/KAZUSA/MPLABXPROJECTS/FM_A   10-10-2013  11:50:21         PAGE 13


SYMBOL TABLE
  LABEL                             VALUE 

ABDEN                             00000000
ABDOVF                            00000007
ACKDT                             00000005
ACKEN                             00000004
ACKSTAT                           00000006
ACKTIM                            00000007
ADCON0                            0000009D
ADCON1                            0000009E
ADCS0                             00000004
ADCS1                             00000005
ADCS2                             00000006
ADD0                              0000005D
ADD1                              0000006D
ADDEN                             00000003
ADFM                              00000007
ADFVR0                            00000000
ADFVR1                            00000001
ADGO                              00000001
ADIE                              00000006
ADIF                              00000006
ADNREF                            00000002
ADON                              00000000
ADPREF0                           00000000
ADPREF1                           00000001
ADRES                             0000009B
ADRESH                            0000009C
ADRESL                            0000009B
AHEN                              00000001
ANSA0                             00000000
ANSA1                             00000001
ANSA2                             00000002
ANSA3                             00000003
ANSA4                             00000004
ANSB1                             00000001
ANSB2                             00000002
ANSB3                             00000003
ANSB4                             00000004
ANSB5                             00000005
ANSB6                             00000006
ANSB7                             00000007
ANSELA                            0000018C
ANSELB                            0000018D
APFCON0                           0000011D
APFCON1                           0000011E
APLYENV                           0000009D
APLYMD0                           000000A4
APLYMD1                           000000AC
ATKCNT                            00000038
BAUDCON                           0000019F
BCL1IE                            00000003
BCL1IF                            00000003
BCL2IE                            00000001
BCL2IF                            00000001
MPASM  5.52  /HOME/KAZUSA/MPLABXPROJECTS/FM_A   10-10-2013  11:50:21         PAGE 14


SYMBOL TABLE
  LABEL                             VALUE 

BF                                00000000
BOEN                              00000004
BORCON                            00000116
BORRDY                            00000000
BRG16                             00000003
BRGH                              00000002
BSR                               00000008
BSR0                              00000000
BSR1                              00000001
BSR2                              00000002
BSR3                              00000003
BSR4                              00000004
BSR_SHAD                          00000FE6
C                                 00000000
C1HYS                             00000001
C1IE                              00000005
C1IF                              00000005
C1INTN                            00000006
C1INTP                            00000007
C1NCH0                            00000000
C1NCH1                            00000001
C1OE                              00000005
C1ON                              00000007
C1OUT                             00000006
C1PCH0                            00000004
C1PCH1                            00000005
C1POL                             00000004
C1SP                              00000002
C1SYNC                            00000000
C1TSEL0                           00000000
C1TSEL1                           00000001
C2HYS                             00000001
C2IE                              00000006
C2IF                              00000006
C2INTN                            00000006
C2INTP                            00000007
C2NCH0                            00000000
C2NCH1                            00000001
C2OE                              00000005
C2ON                              00000007
C2OUT                             00000006
C2PCH0                            00000004
C2PCH1                            00000005
C2POL                             00000004
C2SP                              00000002
C2SYNC                            00000000
C2TSEL0                           00000002
C2TSEL1                           00000003
C3TSEL0                           00000004
C3TSEL1                           00000005
C4TSEL0                           00000006
C4TSEL1                           00000007
CASTWAV                           000000C0
MPASM  5.52  /HOME/KAZUSA/MPLABXPROJECTS/FM_A   10-10-2013  11:50:21         PAGE 15


SYMBOL TABLE
  LABEL                             VALUE 

CAST_H                            000000C3
CAST_L                            000000C5
CCP1AS                            00000295
CCP1AS0                           00000004
CCP1AS1                           00000005
CCP1AS2                           00000006
CCP1ASE                           00000007
CCP1CON                           00000293
CCP1IE                            00000002
CCP1IF                            00000002
CCP1M0                            00000000
CCP1M1                            00000001
CCP1M2                            00000002
CCP1M3                            00000003
CCP1SEL                           00000000
CCP2AS                            0000029C
CCP2AS0                           00000004
CCP2AS1                           00000005
CCP2AS2                           00000006
CCP2ASE                           00000007
CCP2CON                           0000029A
CCP2IE                            00000000
CCP2IF                            00000000
CCP2M0                            00000000
CCP2M1                            00000001
CCP2M2                            00000002
CCP2M3                            00000003
CCP2SEL                           00000003
CCP3CON                           00000313
CCP3IE                            00000004
CCP3IF                            00000004
CCP3M0                            00000000
CCP3M1                            00000001
CCP3M2                            00000002
CCP3M3                            00000003
CCP4CON                           0000031A
CCP4IE                            00000005
CCP4IF                            00000005
CCP4M0                            00000000
CCP4M1                            00000001
CCP4M2                            00000002
CCP4M3                            00000003
CCPR1                             00000291
CCPR1H                            00000292
CCPR1L                            00000291
CCPR2                             00000298
CCPR2H                            00000299
CCPR2L                            00000298
CCPR3                             00000311
CCPR3H                            00000312
CCPR3L                            00000311
CCPR4                             00000318
CCPR4H                            00000319
MPASM  5.52  /HOME/KAZUSA/MPLABXPROJECTS/FM_A   10-10-2013  11:50:21         PAGE 16


SYMBOL TABLE
  LABEL                             VALUE 

CCPR4L                            00000318
CCPTMRS                           0000029E
CCPTMRS0                          0000029E
CDAFVR0                           00000002
CDAFVR1                           00000003
CFGS                              00000006
CHKSW                             00000029
CHS0                              00000002
CHS1                              00000003
CHS2                              00000004
CHS3                              00000005
CHS4                              00000006
CKE                               00000006
CKP                               00000004
CLKRCON                           0000039A
CLKRDC0                           00000003
CLKRDC1                           00000004
CLKRDIV0                          00000000
CLKRDIV1                          00000001
CLKRDIV2                          00000002
CLKREN                            00000007
CLKROE                            00000006
CLKRSLR                           00000005
CLRKEY                            00000036
CM1CON0                           00000111
CM1CON1                           00000112
CM2CON0                           00000113
CM2CON1                           00000114
CMOUT                             00000115
CNTMOD                            00000039
CPSCH0                            00000000
CPSCH1                            00000001
CPSCH2                            00000002
CPSCH3                            00000003
CPSCON0                           0000001E
CPSCON1                           0000001F
CPSON                             00000007
CPSOUT                            00000001
CPSRNG0                           00000002
CPSRNG1                           00000003
CREN                              00000004
CSRC                              00000007
C_SHAD                            00000000
DACCON0                           00000118
DACCON1                           00000119
DACEN                             00000007
DACLPS                            00000006
DACNSS                            00000000
DACOE                             00000005
DACPSS0                           00000002
DACPSS1                           00000003
DACR0                             00000000
DACR1                             00000001
MPASM  5.52  /HOME/KAZUSA/MPLABXPROJECTS/FM_A   10-10-2013  11:50:21         PAGE 17


SYMBOL TABLE
  LABEL                             VALUE 

DACR2                             00000002
DACR3                             00000003
DACR4                             00000004
DC                                00000001
DC1B0                             00000004
DC1B1                             00000005
DC2B0                             00000004
DC2B1                             00000005
DC3B0                             00000004
DC3B1                             00000005
DC4B0                             00000004
DC4B1                             00000005
DC_SHAD                           00000001
DECRESE                           000000B3
DHEN                              00000000
D_NOT_A                           00000005
ECCP1AS                           00000295
ECCP2AS                           0000029C
EEADR                             00000191
EEADRH                            00000192
EEADRL                            00000191
EECON1                            00000195
EECON2                            00000196
EEDAT                             00000193
EEDATH                            00000194
EEDATL                            00000193
EEIE                              00000004
EEIF                              00000004
EEPGD                             00000007
ENV_CNT                           00000026
ENV_OUT                           00000027
ENV_ROM_H                         00000089
ENV_TIK                           00000025
F                                 00000001
FERR                              00000002
FM                                0000003F
FM_EST                            00000001
FM_ON                             00000000
FREE                              00000004
FSR0                              00000004
FSR0H                             00000005
FSR0H_SHAD                        00000FE9
FSR0L                             00000004
FSR0L_SHAD                        00000FE8
FSR1                              00000006
FSR1H                             00000007
FSR1H_SHAD                        00000FEB
FSR1L                             00000006
FSR1L_SHAD                        00000FEA
FVRCON                            00000117
FVREN                             00000007
FVRRDY                            00000006
GCEN                              00000007
MPASM  5.52  /HOME/KAZUSA/MPLABXPROJECTS/FM_A   10-10-2013  11:50:21         PAGE 18


SYMBOL TABLE
  LABEL                             VALUE 

GIE                               00000007
GO                                00000001
GO_NOT_DONE                       00000001
HFIOFL                            00000003
HFIOFR                            00000004
HFIOFS                            00000000
INDF0                             00000000
INDF1                             00000001
INIT_FM                           00000048
INTCON                            0000000B
INTE                              00000004
INTEDG                            00000006
INTF                              00000001
INTFG                             00000022
INTV                              00000004
IOCBF                             00000396
IOCBF0                            00000000
IOCBF1                            00000001
IOCBF2                            00000002
IOCBF3                            00000003
IOCBF4                            00000004
IOCBF5                            00000005
IOCBF6                            00000006
IOCBF7                            00000007
IOCBN                             00000395
IOCBN0                            00000000
IOCBN1                            00000001
IOCBN2                            00000002
IOCBN3                            00000003
IOCBN4                            00000004
IOCBN5                            00000005
IOCBN6                            00000006
IOCBN7                            00000007
IOCBP                             00000394
IOCBP0                            00000000
IOCBP1                            00000001
IOCBP2                            00000002
IOCBP3                            00000003
IOCBP4                            00000004
IOCBP5                            00000005
IOCBP6                            00000006
IOCBP7                            00000007
IOCIE                             00000003
IOCIF                             00000000
IRCF0                             00000003
IRCF1                             00000004
IRCF2                             00000005
IRCF3                             00000006
IRQ                               00000005
JOBF                              00000021
JOBMASK                           00000055
KEYPORT                           00000004
KEY_PRV                           0000002E
MPASM  5.52  /HOME/KAZUSA/MPLABXPROJECTS/FM_A   10-10-2013  11:50:21         PAGE 19


SYMBOL TABLE
  LABEL                             VALUE 

LATA                              0000010C
LATA0                             00000000
LATA1                             00000001
LATA2                             00000002
LATA3                             00000003
LATA4                             00000004
LATA6                             00000006
LATA7                             00000007
LATB                              0000010D
LATB0                             00000000
LATB1                             00000001
LATB2                             00000002
LATB3                             00000003
LATB4                             00000004
LATB5                             00000005
LATB6                             00000006
LATB7                             00000007
LFIOFR                            00000001
LOOPCNT                           00000020
LOOPENV                           000000A0
LWLO                              00000005
MAIN                              0000001F
MC1OUT                            00000000
MC2OUT                            00000001
MDBIT                             00000000
MDCARH                            0000039F
MDCARL                            0000039E
MDCH0                             00000000
MDCH1                             00000001
MDCH2                             00000002
MDCH3                             00000003
MDCHODIS                          00000007
MDCHPOL                           00000006
MDCHSYNC                          00000005
MDCL0                             00000000
MDCL1                             00000001
MDCL2                             00000002
MDCL3                             00000003
MDCLODIS                          00000007
MDCLPOL                           00000006
MDCLSYNC                          00000005
MDCON                             0000039C
MDEN                              00000007
MDMS0                             00000000
MDMS1                             00000001
MDMS2                             00000002
MDMS3                             00000003
MDMSODIS                          00000007
MDOE                              00000006
MDOPOL                            00000004
MDOUT                             00000003
MDSLR                             00000005
MDSRC                             0000039D
MPASM  5.52  /HOME/KAZUSA/MPLABXPROJECTS/FM_A   10-10-2013  11:50:21         PAGE 20


SYMBOL TABLE
  LABEL                             VALUE 

MFIOFR                            00000002
MODF_0                            00000029
MODF_1                            00000032
MODLOG                            000000B8
MOD_SIG_0                         0000002D
MOD_SIG_1                         00000033
NOT_BOR                           00000000
NOT_PD                            00000003
NOT_POR                           00000001
NOT_RI                            00000002
NOT_RMCLR                         00000003
NOT_T1SYNC                        00000002
NOT_TO                            00000004
NOT_WPUEN                         00000007
OERR                              00000001
OPTION_REG                        00000095
OPX_WAV                           00000077
OSCCON                            00000099
OSCSTAT                           0000009A
OSCTUNE                           00000098
OSFIE                             00000007
OSFIF                             00000007
OSTS                              00000005
OUTWAV                            00000036
OUTWAV_0                          00000028
OUTWAV_1                          00000031
OUT_R2R                           000000CD
P                                 00000004
P0_STEP                           00000057
P1CSEL                            00000001
P1DC0                             00000000
P1DC1                             00000001
P1DC2                             00000002
P1DC3                             00000003
P1DC4                             00000004
P1DC5                             00000005
P1DC6                             00000006
P1DSEL                            00000002
P1M0                              00000006
P1M1                              00000007
P1RSEN                            00000007
P1_STEP                           00000067
P2BSEL                            00000004
P2DC0                             00000000
P2DC1                             00000001
P2DC2                             00000002
P2DC3                             00000003
P2DC4                             00000004
P2DC5                             00000005
P2DC6                             00000006
P2M0                              00000006
P2M1                              00000007
P2RSEN                            00000007
MPASM  5.52  /HOME/KAZUSA/MPLABXPROJECTS/FM_A   10-10-2013  11:50:21         PAGE 21


SYMBOL TABLE
  LABEL                             VALUE 

PCIE                              00000006
PCL                               00000002
PCLATH                            0000000A
PCLATH_SHAD                       00000FE7
PCON                              00000096
PEIE                              00000006
PEN                               00000002
PHASE_ROM_H                       00000088
PIE1                              00000091
PIE2                              00000092
PIE3                              00000093
PIE4                              00000094
PIR1                              00000011
PIR2                              00000012
PIR3                              00000013
PIR4                              00000014
PLLR                              00000006
PORTA                             0000000C
PORTB                             0000000D
PR2                               0000001B
PR4                               00000416
PR6                               0000041D
PS0                               00000000
PS1                               00000001
PS2                               00000002
PSA                               00000003
PSS1AC0                           00000002
PSS1AC1                           00000003
PSS1BD0                           00000000
PSS1BD1                           00000001
PSS2AC0                           00000002
PSS2AC1                           00000003
PSS2BD0                           00000000
PSS2BD1                           00000001
PSTR1CON                          00000296
PSTR2CON                          0000029D
PWM1CON                           00000294
PWM2CON                           0000029B
P_PHASE_0                         00000024
P_PHASE_1                         00000030
P_QUAD_0                          00000023
P_QUAD_1                          0000002F
RA0                               00000000
RA1                               00000001
RA2                               00000002
RA3                               00000003
RA4                               00000004
RA5                               00000005
RA6                               00000006
RA7                               00000007
RB0                               00000000
RB1                               00000001
RB2                               00000002
MPASM  5.52  /HOME/KAZUSA/MPLABXPROJECTS/FM_A   10-10-2013  11:50:21         PAGE 22


SYMBOL TABLE
  LABEL                             VALUE 

RB3                               00000003
RB4                               00000004
RB5                               00000005
RB6                               00000006
RB7                               00000007
RCEN                              00000003
RCIDL                             00000006
RCIE                              00000005
RCIF                              00000005
RCREG                             00000199
RCSTA                             0000019D
RD                                00000000
RESETV                            00000000
ROM2SIN                           00000086
ROM_PHASE                         00000034
ROM_QUAD                          00000035
ROTCNT                            000000BB
RSEN                              00000001
RX9                               00000006
RX9D                              00000000
RXDTSEL                           00000007
R_NOT_W                           00000002
S                                 00000003
SBCDE                             00000002
SBOREN                            00000007
SCIE                              00000005
SCKP                              00000004
SCS0                              00000000
SCS1                              00000001
SDAHT                             00000003
SDO1SEL                           00000006
SEN                               00000000
SENDB                             00000003
SMP                               00000007
SP1BRG                            0000019B
SP1BRGH                           0000019C
SP1BRGL                           0000019B
SPBRG                             0000019B
SPBRGH                            0000019C
SPBRGL                            0000019B
SPEN                              00000007
SPLLEN                            00000007
SRCLK0                            00000004
SRCLK1                            00000005
SRCLK2                            00000006
SRCON0                            0000011A
SRCON1                            0000011B
SREN                              00000005
SRLEN                             00000007
SRNQEN                            00000002
SRPR                              00000000
SRPS                              00000001
SRQEN                             00000003
MPASM  5.52  /HOME/KAZUSA/MPLABXPROJECTS/FM_A   10-10-2013  11:50:21         PAGE 23


SYMBOL TABLE
  LABEL                             VALUE 

SRRC1E                            00000000
SRRC2E                            00000001
SRRCKE                            00000002
SRRPE                             00000003
SRSC1E                            00000004
SRSC2E                            00000005
SRSCKE                            00000006
SRSPE                             00000007
SS1SEL                            00000005
SSP1ADD                           00000212
SSP1BUF                           00000211
SSP1CON1                          00000215
SSP1CON2                          00000216
SSP1CON3                          00000217
SSP1IE                            00000003
SSP1IF                            00000003
SSP1MSK                           00000213
SSP1STAT                          00000214
SSP2ADD                           0000021A
SSP2BUF                           00000219
SSP2CON1                          0000021D
SSP2CON2                          0000021E
SSP2CON3                          0000021F
SSP2IE                            00000000
SSP2IF                            00000000
SSP2MSK                           0000021B
SSP2STAT                          0000021C
SSPADD                            00000212
SSPBUF                            00000211
SSPCON                            00000215
SSPCON1                           00000215
SSPCON2                           00000216
SSPCON3                           00000217
SSPEN                             00000005
SSPM0                             00000000
SSPM1                             00000001
SSPM2                             00000002
SSPM3                             00000003
SSPMSK                            00000213
SSPOV                             00000006
SSPSTAT                           00000214
START                             00000009
STATUS                            00000003
STATUS_SHAD                       00000FE4
STEPENV                           0000008F
STKOVF                            00000007
STKPTR                            00000FED
STKUNF                            00000006
STR1A                             00000000
STR1B                             00000001
STR1C                             00000002
STR1D                             00000003
STR1SYNC                          00000004
MPASM  5.52  /HOME/KAZUSA/MPLABXPROJECTS/FM_A   10-10-2013  11:50:21         PAGE 24


SYMBOL TABLE
  LABEL                             VALUE 

STR2A                             00000000
STR2B                             00000001
STR2C                             00000002
STR2D                             00000003
STR2SYNC                          00000004
SUB0                              00000062
SUB1                              00000072
SWDTEN                            00000000
SW_EST                            00000003
SYNC                              00000004
SYNCS                             000000C8
SYN_JOB                           00000038
SYSTIK                            00000037
T0CS                              00000005
T0IE                              00000005
T0IF                              00000002
T0SE                              00000004
T0XCS                             00000000
T1CKPS0                           00000004
T1CKPS1                           00000005
T1CON                             00000018
T1GCON                            00000019
T1GGO                             00000003
T1GPOL                            00000006
T1GSPM                            00000004
T1GSS0                            00000000
T1GSS1                            00000001
T1GTM                             00000005
T1GVAL                            00000002
T1OSCEN                           00000003
T1OSCR                            00000007
T2CKPS0                           00000000
T2CKPS1                           00000001
T2CON                             0000001C
T2OUTPS0                          00000003
T2OUTPS1                          00000004
T2OUTPS2                          00000005
T2OUTPS3                          00000006
T4CKPS0                           00000000
T4CKPS1                           00000001
T4CON                             00000417
T4OUTPS0                          00000003
T4OUTPS1                          00000004
T4OUTPS2                          00000005
T4OUTPS3                          00000006
T6CKPS0                           00000000
T6CKPS1                           00000001
T6CON                             0000041E
T6OUTPS0                          00000003
T6OUTPS1                          00000004
T6OUTPS2                          00000005
T6OUTPS3                          00000006
TMR0                              00000015
MPASM  5.52  /HOME/KAZUSA/MPLABXPROJECTS/FM_A   10-10-2013  11:50:21         PAGE 25


SYMBOL TABLE
  LABEL                             VALUE 

TMR0CS                            00000005
TMR0IE                            00000005
TMR0IF                            00000002
TMR0SE                            00000004
TMR1                              00000016
TMR1CS0                           00000006
TMR1CS1                           00000007
TMR1GE                            00000007
TMR1GIE                           00000007
TMR1GIF                           00000007
TMR1H                             00000017
TMR1IE                            00000000
TMR1IF                            00000000
TMR1L                             00000016
TMR1ON                            00000000
TMR2                              0000001A
TMR2IE                            00000001
TMR2IF                            00000001
TMR2ON                            00000002
TMR4                              00000415
TMR4IE                            00000001
TMR4IF                            00000001
TMR4ON                            00000002
TMR6                              0000041C
TMR6IE                            00000003
TMR6IF                            00000003
TMR6ON                            00000002
TOSH                              00000FEF
TOSL                              00000FEE
TRISA                             0000008C
TRISA0                            00000000
TRISA1                            00000001
TRISA2                            00000002
TRISA3                            00000003
TRISA4                            00000004
TRISA5                            00000005
TRISA6                            00000006
TRISA7                            00000007
TRISB                             0000008D
TRISB0                            00000000
TRISB1                            00000001
TRISB2                            00000002
TRISB3                            00000003
TRISB4                            00000004
TRISB5                            00000005
TRISB6                            00000006
TRISB7                            00000007
TRMT                              00000001
TSEN                              00000005
TSRNG                             00000004
TUN0                              00000000
TUN1                              00000001
TUN2                              00000002
MPASM  5.52  /HOME/KAZUSA/MPLABXPROJECTS/FM_A   10-10-2013  11:50:21         PAGE 26


SYMBOL TABLE
  LABEL                             VALUE 

TUN3                              00000003
TUN4                              00000004
TUN5                              00000005
TX9                               00000006
TX9D                              00000000
TXCKSEL                           00000000
TXEN                              00000005
TXIE                              00000004
TXIF                              00000004
TXREG                             0000019A
TXSTA                             0000019E
UA                                00000001
W                                 00000000
WCOL                              00000007
WDTCON                            00000097
WDTPS0                            00000001
WDTPS1                            00000002
WDTPS2                            00000003
WDTPS3                            00000004
WDTPS4                            00000005
WPUA                              0000020C
WPUA5                             00000005
WPUB                              0000020D
WPUB0                             00000000
WPUB1                             00000001
WPUB2                             00000002
WPUB3                             00000003
WPUB4                             00000004
WPUB5                             00000005
WPUB6                             00000006
WPUB7                             00000007
WR                                00000001
WREG                              00000009
WREG_SHAD                         00000FE5
WREN                              00000002
WRERR                             00000003
WUE                               00000001
Z                                 00000002
Z_SHAD                            00000002
_BOREN_NSLEEP                     0000FDFF
_BOREN_OFF                        0000F9FF
_BOREN_ON                         0000FFFF
_BOREN_SBODEN                     0000FBFF
_BORV_19                          0000FFFF
_BORV_HI                          0000FBFF
_BORV_LO                          0000FFFF
_CLKOUTEN_OFF                     0000FFFF
_CLKOUTEN_ON                      0000F7FF
_CONFIG1                          00008007
_CONFIG2                          00008008
_CPD_OFF                          0000FFFF
_CPD_ON                           0000FEFF
_CP_OFF                           0000FFFF
MPASM  5.52  /HOME/KAZUSA/MPLABXPROJECTS/FM_A   10-10-2013  11:50:21         PAGE 27


SYMBOL TABLE
  LABEL                             VALUE 

_CP_ON                            0000FF7F
_DEVID1                           00008006
_FCMEN_OFF                        0000DFFF
_FCMEN_ON                         0000FFFF
_FOSC_ECH                         0000FFFF
_FOSC_ECL                         0000FFFD
_FOSC_ECM                         0000FFFE
_FOSC_EXTRC                       0000FFFB
_FOSC_HS                          0000FFFA
_FOSC_INTOSC                      0000FFFC
_FOSC_LP                          0000FFF8
_FOSC_XT                          0000FFF9
_IDLOC0                           00008000
_IDLOC1                           00008001
_IDLOC2                           00008002
_IDLOC3                           00008003
_IESO_OFF                         0000EFFF
_IESO_ON                          0000FFFF
_LVP_OFF                          0000DFFF
_LVP_ON                           0000FFFF
_MCLRE_OFF                        0000FFBF
_MCLRE_ON                         0000FFFF
_PLLEN_OFF                        0000FEFF
_PLLEN_ON                         0000FFFF
_PWRTE_OFF                        0000FFFF
_PWRTE_ON                         0000FFDF
_STVREN_OFF                       0000FDFF
_STVREN_ON                        0000FFFF
_WDTE_NSLEEP                      0000FFF7
_WDTE_OFF                         0000FFE7
_WDTE_ON                          0000FFFF
_WDTE_SWDTEN                      0000FFEF
_WRT_ALL                          0000FFFC
_WRT_BOOT                         0000FFFE
_WRT_HALF                         0000FFFD
_WRT_OFF                          0000FFFF
__16F1827                         00000001
__DEBUG                           

Errors   :     0
Warnings :     4 reported,     0 suppressed
Messages :    10 reported,     0 suppressed

